; Function Attrs: mustprogress uwtable
define internal void @_ZNSt17_Function_handlerIFviEZN3gmxL13getConnectionILNS1_16IntegrationStageE5EEENS1_20PropagatorConnectionEPNS1_10PropagatorIXT_EEERKNS1_13PropagatorTagEEUliE_E9_M_invokeERKSt9_Any_dataOi(ptr nocapture noundef nonnull readonly align 8 dereferenceable(16) %0, ptr nocapture noundef nonnull readonly align 4 dereferenceable(4) %1) #0 align 2 personality ptr @__gxx_personality_v0 {
  %3 = alloca float, align 4
  %.val = load ptr, ptr %0, align 8
  %.val2 = load i32, ptr %1, align 4
  call void @llvm.lifetime.start.p0(i64 4, ptr nonnull %3)
  %4 = getelementptr inbounds i8, ptr %.val, i64 80
  %5 = load ptr, ptr %4, align 8
  %6 = getelementptr inbounds i8, ptr %.val, i64 88
  %7 = load ptr, ptr %6, align 8
  %8 = icmp eq ptr %5, %7
  br i1 %8, label %10, label %9

9:                                                ; preds = %2
  tail call void @_ZN3gmx8internal13assertHandlerEPKcS2_S2_S2_i(ptr noundef nonnull @.str.65, ptr noundef nonnull @.str.66, ptr noundef nonnull @__PRETTY_FUNCTION__._ZZN3gmx10PropagatorILNS_16IntegrationStageE5EE30setNumPositionScalingVariablesEiENKUlvE0_clEv, ptr noundef nonnull @.str.53, i32 noundef 793) #22
  unreachable

10:                                               ; preds = %2
  store float 1.000000e+00, ptr %3, align 4
  %.not.i.i.i.i = icmp eq i32 %.val2, 0
  br i1 %.not.i.i.i.i, label %_ZSt10__invoke_rIvRZN3gmxL13getConnectionILNS0_16IntegrationStageE5EEENS0_20PropagatorConnectionEPNS0_10PropagatorIXT_EEERKNS0_13PropagatorTagEEUliE_JiEENSt9enable_ifIX16is_invocable_r_vIT_T0_DpT1_EESD_E4typeEOSE_DpOSF_.exit, label %11

11:                                               ; preds = %10
  %12 = sext i32 %.val2 to i64
  call void @_ZNSt6vectorIfSaIfEE14_M_fill_insertEN9__gnu_cxx17__normal_iteratorIPfS1_EEmRKf(ptr noundef nonnull align 8 dereferenceable(24) %4, ptr %5, i64 noundef %12, ptr noundef nonnull align 4 dereferenceable(4) %3)
  br label %_ZSt10__invoke_rIvRZN3gmxL13getConnectionILNS0_16IntegrationStageE5EEENS0_20PropagatorConnectionEPNS0_10PropagatorIXT_EEERKNS0_13PropagatorTagEEUliE_JiEENSt9enable_ifIX16is_invocable_r_vIT_T0_DpT1_EESD_E4typeEOSE_DpOSF_.exit

_ZSt10__invoke_rIvRZN3gmxL13getConnectionILNS0_16IntegrationStageE5EEENS0_20PropagatorConnectionEPNS0_10PropagatorIXT_EEERKNS0_13PropagatorTagEEUliE_JiEENSt9enable_ifIX16is_invocable_r_vIT_T0_DpT1_EESD_E4typeEOSE_DpOSF_.exit: ; preds = %10, %11
  %13 = icmp eq i32 %.val2, 1
  %14 = getelementptr inbounds i8, ptr %.val, i64 28
  %15 = zext i1 %13 to i8
  store i8 %15, ptr %14, align 4
  %16 = icmp sgt i32 %.val2, 1
  %17 = getelementptr inbounds i8, ptr %.val, i64 29
  %18 = zext i1 %16 to i8
  store i8 %18, ptr %17, align 1
  call void @llvm.lifetime.end.p0(i64 4, ptr nonnull %3)
  ret void
}